; Function Attrs: nounwind uwtable
define hidden ptr @mi_new_realloc(ptr noundef %0, i64 noundef %1) local_unnamed_addr #3 {
  %3 = tail call align 8 ptr @llvm.threadlocal.address.p0(ptr align 8 @_mi_heap_default)
  %4 = load ptr, ptr %3, align 8, !tbaa !3
  %5 = tail call ptr @_mi_heap_realloc_zero(ptr noundef %4, ptr noundef %0, i64 noundef %1, i1 noundef zeroext false) #20
  %6 = icmp eq ptr %5, null
  br i1 %6, label %.lr.ph, label %.critedge

.lr.ph:                                           ; preds = %2, %mi_try_new_handler.exit
  %7 = tail call ptr @_ZSt15get_new_handlerv() #20
  %.not = icmp eq ptr %7, null
  br i1 %.not, label %8, label %mi_try_new_handler.exit

8:                                                ; preds = %.lr.ph
  tail call void (i32, ptr, ...) @_mi_error_message(i32 noundef 12, ptr noundef nonnull @.str.4) #19
  tail call void @abort() #21
  unreachable

mi_try_new_handler.exit:                          ; preds = %.lr.ph
  tail call void %7() #19
  %9 = load ptr, ptr %3, align 8, !tbaa !3
  %10 = tail call ptr @_mi_heap_realloc_zero(ptr noundef %9, ptr noundef %0, i64 noundef %1, i1 noundef zeroext false) #20
  %11 = icmp eq ptr %10, null
  br i1 %11, label %.lr.ph, label %.critedge, !llvm.loop !40

.critedge:                                        ; preds = %mi_try_new_handler.exit, %2
  %.lcssa = phi ptr [ %5, %2 ], [ %10, %mi_try_new_handler.exit ]
  ret ptr %.lcssa
}